target datalayout = "e-m:e-p270:32:32-p271:32:32-p272:64:64-i64:64-i128:128-f80:128-n8:16:32:64-S128"
target triple = "x86_64-pc-linux-gnu"

%struct._archiveHandle = type { %struct.Archive, i32, ptr, ptr, i64, i64, i32, %struct.sqlparseInfo, i64, i32, ptr, i64, i64, i64, ptr, ptr, ptr, ptr, ptr, ptr, ptr, ptr, ptr, ptr, ptr, ptr, ptr, ptr, ptr, ptr, ptr, ptr, ptr, ptr, ptr, ptr, ptr, ptr, ptr, ptr, ptr, ptr, ptr, ptr, i32, i32, i8, i32, i8, i32, ptr, ptr, ptr, ptr, i32, i32, ptr, ptr, ptr, %struct.pg_compress_specification, i8, i32, i32, ptr, ptr, ptr, ptr, ptr, i32, ptr, i64, i64, i32, i32, i32, i32, ptr, ptr }
%struct.Archive = type { ptr, ptr, i32, ptr, i32, i8, i32, i32, i32, ptr, i32, i8, ptr, ptr, i8, i32, ptr }
%struct.sqlparseInfo = type { i32, i8, ptr }
%struct.pg_compress_specification = type { i32, i32, i32, i32, i8, ptr }
%struct.lclContext = type { i32, i64, ptr, ptr, i64, i64, ptr, i32, ptr }
%struct._tocEntry = type { ptr, ptr, %struct.CatalogId, i32, i32, i8, ptr, ptr, ptr, ptr, i8, ptr, ptr, ptr, ptr, ptr, ptr, i32, ptr, ptr, ptr, i64, i32, i8, ptr, ptr, i32, ptr, i32, ptr, i32 }
%struct.CatalogId = type { i32, i32 }

@.str.45 = private unnamed_addr constant [13 x i8] c"blobs_%d.toc\00", align 1

; Function Attrs: nounwind uwtable
define internal void @_StartLOs(ptr noundef %0, ptr noundef %1) #0 {
  %3 = alloca ptr, align 8
  %4 = alloca ptr, align 8
  %5 = alloca ptr, align 8
  %6 = alloca [1024 x i8], align 16
  store ptr %0, ptr %3, align 8
  store ptr %1, ptr %4, align 8
  call void @llvm.lifetime.start.p0(i64 8, ptr %5) #12
  %7 = load ptr, ptr %3, align 8
  %8 = getelementptr inbounds nuw %struct._archiveHandle, ptr %7, i32 0, i32 63
  %9 = load ptr, ptr %8, align 8
  store ptr %9, ptr %5, align 8
  call void @llvm.lifetime.start.p0(i64 1024, ptr %6) #12
  %10 = getelementptr inbounds [1024 x i8], ptr %6, i64 0, i64 0
  %11 = load ptr, ptr %4, align 8
  %12 = getelementptr inbounds nuw %struct._tocEntry, ptr %11, i32 0, i32 3
  %13 = load i32, ptr %12, align 8
  %14 = call i32 (ptr, ptr, ...) @pg_sprintf(ptr noundef %10, ptr noundef @.str.45, i32 noundef %13)
  %15 = load ptr, ptr %3, align 8
  %16 = getelementptr inbounds [1024 x i8], ptr %6, i64 0, i64 0
  %17 = call ptr @tarOpen(ptr noundef %15, ptr noundef %16, i8 noundef signext 119)
  %18 = load ptr, ptr %5, align 8
  %19 = getelementptr inbounds nuw %struct.lclContext, ptr %18, i32 0, i32 2
  store ptr %17, ptr %19, align 8
  call void @llvm.lifetime.end.p0(i64 1024, ptr %6) #12
  call void @llvm.lifetime.end.p0(i64 8, ptr %5) #12
  ret void
}