; Function Attrs: nounwind uwtable
define internal void @_StartLOs(ptr noundef %0, ptr noundef readonly captures(none) %1) #0 {
  %3 = alloca [1024 x i8], align 16
  %4 = getelementptr inbounds nuw i8, ptr %0, i64 592
  %5 = load ptr, ptr %4, align 8
  call void @llvm.lifetime.start.p0(i64 1024, ptr nonnull %3) #17
  %6 = getelementptr inbounds nuw i8, ptr %1, i64 24
  %7 = load i32, ptr %6, align 8
  %8 = call i32 (ptr, ptr, ...) @pg_sprintf(ptr noundef nonnull %3, ptr noundef nonnull @.str.45, i32 noundef %7) #17
  %9 = call fastcc ptr @tarOpen(ptr noundef %0, ptr noundef nonnull %3, i8 noundef signext 119)
  %10 = getelementptr inbounds nuw i8, ptr %5, i64 16
  store ptr %9, ptr %10, align 8
  call void @llvm.lifetime.end.p0(i64 1024, ptr nonnull %3) #17
  ret void
}